(lp0
carray
array
p1
(S'l'
p2
(lp3
I10
aI23
aI17
aI3
aI24
aI35
aI25
aI23
aI30
aI18
aI9
aI17
aI30
aI33
aI21
aI14
aI20
aI14
aI36
aI19
aI16
aI11
aI11
aI33
aI16
aI22
aI15
aI9
aI22
aI24
aI9
aI32
aI11
aI15
aI17
aI22
aI13
aI29
aI16
aI16
aI26
aI10
aI40
aI11
aI17
aI28
aI29
aI10
aI25
aI19
aI18
aI10
aI35
aI9
aI10
aI18
aI22
aI23
aI32
aI27
aI14
aI26
aI20
aI22
aI26
aI16
aI11
aI22
aI23
aI45
aI17
aI14
aI18
aI25
aI19
aI15
aI27
aI14
aI31
aI16
aI15
aI22
aI12
aI17
aI25
aI17
aI13
aI18
aI13
aI19
aI12
aI23
aI26
aI13
aI15
aI27
aI12
aI20
aI23
aI18
atp4
Rp5
ag1
(g2
(lp6
I8
aI38
aI20
aI33
aI9
aI14
aI20
aI25
aI21
aI21
aI17
aI16
aI27
aI28
aI12
aI19
aI13
aI30
aI26
aI23
aI23
aI19
aI26
aI15
aI27
aI23
aI14
aI14
aI15
aI9
aI31
aI18
aI9
aI22
aI16
aI23
aI36
aI15
aI12
aI22
aI15
aI25
aI25
aI29
aI16
aI9
aI14
aI14
aI16
aI16
aI15
aI22
aI17
aI16
aI16
aI17
aI17
aI17
aI20
aI36
aI20
aI11
aI17
aI19
aI19
aI21
aI21
aI12
aI18
aI26
aI11
aI15
aI15
aI17
aI18
aI21
aI10
aI25
aI10
aI26
aI31
aI9
aI22
aI23
aI24
aI12
aI30
aI30
aI17
aI25
aI16
aI23
aI32
aI16
aI14
aI16
aI22
aI19
aI48
aI18
atp7
Rp8
ag1
(g2
(lp9
I24
aI19
aI18
aI24
aI14
aI21
aI31
aI26
aI17
aI10
aI14
aI36
aI25
aI20
aI15
aI24
aI23
aI14
aI36
aI14
aI9
aI25
aI29
aI21
aI16
aI14
aI13
aI20
aI25
aI21
aI12
aI26
aI20
aI13
aI33
aI6
aI25
aI11
aI13
aI27
aI22
aI16
aI9
aI34
aI11
aI25
aI16
aI24
aI9
aI23
aI15
aI12
aI20
aI12
aI25
aI17
aI26
aI24
aI28
aI26
aI10
aI24
aI15
aI24
aI17
aI19
aI14
aI25
aI16
aI30
aI20
aI27
aI17
aI14
aI21
aI21
aI16
aI12
aI18
aI9
aI40
aI12
aI15
aI10
aI31
aI12
aI24
aI7
aI29
aI24
aI15
aI8
aI28
aI28
aI19
aI21
aI31
aI15
aI25
aI19
atp10
Rp11
ag1
(g2
(lp12
I13
aI22
aI44
aI21
aI12
aI26
aI19
aI14
aI15
aI10
aI31
aI18
aI19
aI27
aI11
aI10
aI8
aI17
aI21
aI29
aI18
aI8
aI30
aI14
aI34
aI17
aI16
aI17
aI13
aI24
aI15
aI20
aI14
aI13
aI28
aI7
aI23
aI20
aI12
aI14
aI17
aI15
aI21
aI14
aI35
aI15
aI27
aI14
aI25
aI12
aI17
aI18
aI23
aI24
aI34
aI28
aI42
aI16
aI21
aI18
aI8
aI30
aI23
aI13
aI23
aI18
aI21
aI36
aI18
aI30
aI24
aI21
aI12
aI6
aI9
aI32
aI25
aI19
aI16
aI28
aI14
aI17
aI12
aI15
aI8
aI28
aI15
aI10
aI21
aI29
aI18
aI19
aI10
aI27
aI26
aI26
aI21
aI39
aI16
aI17
atp13
Rp14
ag1
(g2
(lp15
I22
aI20
aI32
aI19
aI17
aI18
aI21
aI20
aI8
aI24
aI8
aI14
aI19
aI9
aI46
aI16
aI20
aI22
aI15
aI29
aI8
aI16
aI19
aI37
aI34
aI18
aI28
aI41
aI7
aI28
aI14
aI14
aI18
aI16
aI23
aI9
aI21
aI9
aI23
aI20
aI10
aI17
aI16
aI16
aI17
aI18
aI10
aI37
aI11
aI19
aI20
aI24
aI9
aI22
aI21
aI15
aI44
aI35
aI15
aI22
aI19
aI24
aI14
aI15
aI19
aI32
aI15
aI20
aI22
aI23
aI7
aI24
aI18
aI18
aI15
aI22
aI28
aI24
aI22
aI17
aI12
aI30
aI21
aI25
aI19
aI19
aI19
aI19
aI11
aI18
aI19
aI11
aI17
aI17
aI31
aI21
aI26
aI18
aI17
aI12
atp16
Rp17
ag1
(g2
(lp18
I20
aI22
aI29
aI20
aI22
aI23
aI20
aI12
aI31
aI19
aI18
aI23
aI7
aI26
aI14
aI13
aI23
aI9
aI31
aI25
aI23
aI23
aI22
aI21
aI15
aI23
aI11
aI21
aI27
aI14
aI14
aI17
aI20
aI23
aI23
aI21
aI32
aI19
aI11
aI11
aI21
aI28
aI17
aI4
aI37
aI18
aI40
aI21
aI18
aI26
aI32
aI19
aI12
aI17
aI9
aI21
aI32
aI25
aI13
aI29
aI34
aI21
aI21
aI32
aI17
aI19
aI43
aI19
aI12
aI29
aI11
aI23
aI4
aI10
aI23
aI22
aI35
aI12
aI18
aI12
aI12
aI8
aI10
aI21
aI16
aI22
aI14
aI13
aI11
aI25
aI24
aI18
aI17
aI15
aI21
aI17
aI7
aI19
aI22
aI14
atp19
Rp20
ag1
(g2
(lp21
I16
aI22
aI22
aI23
aI11
aI21
aI28
aI10
aI15
aI25
aI30
aI11
aI37
aI14
aI29
aI20
aI35
aI14
aI29
aI14
aI22
aI13
aI29
aI26
aI28
aI13
aI22
aI33
aI19
aI14
aI16
aI14
aI15
aI14
aI30
aI25
aI31
aI14
aI12
aI24
aI13
aI19
aI24
aI16
aI16
aI19
aI28
aI21
aI17
aI10
aI33
aI20
aI22
aI9
aI17
aI11
aI27
aI13
aI14
aI7
aI17
aI21
aI14
aI24
aI22
aI15
aI35
aI17
aI12
aI17
aI22
aI21
aI18
aI18
aI26
aI16
aI13
aI34
aI23
aI15
aI22
aI27
aI9
aI8
aI27
aI23
aI22
aI14
aI12
aI25
aI23
aI11
aI14
aI23
aI22
aI19
aI9
aI26
aI29
aI19
atp22
Rp23
ag1
(g2
(lp24
I17
aI15
aI27
aI20
aI26
aI23
aI21
aI11
aI9
aI14
aI23
aI26
aI16
aI15
aI12
aI20
aI31
aI13
aI32
aI16
aI22
aI23
aI14
aI32
aI9
aI18
aI18
aI21
aI20
aI24
aI17
aI9
aI27
aI13
aI8
aI24
aI12
aI25
aI15
aI14
aI21
aI28
aI25
aI18
aI25
aI15
aI12
aI12
aI17
aI10
aI15
aI15
aI19
aI18
aI11
aI22
aI27
aI43
aI21
aI26
aI27
aI33
aI26
aI14
aI17
aI17
aI22
aI14
aI19
aI19
aI21
aI23
aI16
aI20
aI28
aI27
aI24
aI18
aI26
aI16
aI28
aI16
aI21
aI19
aI19
aI13
aI23
aI17
aI25
aI36
aI14
aI15
aI20
aI22
aI26
aI19
aI22
aI9
aI15
aI22
atp25
Rp26
ag1
(g2
(lp27
I22
aI11
aI20
aI21
aI16
aI23
aI16
aI27
aI29
aI22
aI40
aI25
aI19
aI11
aI14
aI16
aI22
aI9
aI16
aI26
aI45
aI25
aI10
aI16
aI17
aI14
aI27
aI21
aI33
aI12
aI9
aI27
aI11
aI32
aI18
aI18
aI11
aI22
aI19
aI19
aI19
aI14
aI30
aI13
aI14
aI16
aI11
aI23
aI22
aI18
aI27
aI42
aI12
aI48
aI34
aI13
aI25
aI11
aI21
aI27
aI13
aI17
aI18
aI12
aI7
aI41
aI14
aI24
aI20
aI15
aI16
aI15
aI19
aI25
aI13
aI13
aI16
aI24
aI20
aI28
aI17
aI15
aI15
aI21
aI14
aI9
aI24
aI10
aI25
aI26
aI21
aI19
aI15
aI16
aI22
aI13
aI24
aI13
aI30
aI10
atp28
Rp29
ag1
(g2
(lp30
I19
aI24
aI13
aI13
aI20
aI33
aI32
aI17
aI21
aI16
aI18
aI20
aI16
aI8
aI21
aI20
aI12
aI12
aI26
aI21
aI22
aI31
aI17
aI9
aI25
aI10
aI13
aI9
aI34
aI19
aI18
aI18
aI18
aI22
aI29
aI23
aI14
aI15
aI15
aI20
aI26
aI18
aI18
aI18
aI6
aI16
aI14
aI15
aI21
aI18
aI22
aI10
aI20
aI22
aI17
aI32
aI14
aI27
aI19
aI11
aI24
aI25
aI16
aI23
aI18
aI31
aI29
aI22
aI17
aI23
aI23
aI10
aI23
aI25
aI16
aI22
aI18
aI26
aI23
aI14
aI12
aI15
aI24
aI15
aI18
aI17
aI29
aI24
aI14
aI11
aI15
aI44
aI25
aI36
aI6
aI36
aI26
aI7
aI21
aI30
atp31
Rp32
a.