(lp0
carray
array
p1
(S'l'
p2
(lp3
I11
aI21
aI23
aI18
aI26
aI35
aI25
aI14
aI23
aI11
aI10
aI19
aI36
aI20
aI17
aI29
aI22
aI13
aI32
aI12
aI13
aI16
aI18
aI36
aI33
aI14
aI19
aI22
aI20
aI9
aI26
aI43
aI11
aI10
aI18
aI26
aI24
aI36
aI20
aI29
aI38
aI12
aI37
aI13
aI10
aI17
aI22
aI15
aI26
aI19
aI49
aI15
aI32
aI15
aI17
aI17
aI20
aI23
aI37
aI18
aI11
aI11
aI26
aI19
aI28
aI16
aI6
aI31
aI28
aI29
aI16
aI12
aI12
aI20
aI14
aI27
aI33
aI16
aI16
aI20
aI19
aI22
aI33
aI12
aI21
aI20
aI16
aI11
aI16
aI21
aI15
aI22
aI29
aI16
aI18
aI24
aI17
aI16
aI24
aI19
atp4
Rp5
ag1
(g2
(lp6
I19
aI45
aI22
aI36
aI15
aI19
aI22
aI26
aI22
aI18
aI23
aI25
aI27
aI31
aI25
aI12
aI13
aI10
aI13
aI22
aI12
aI13
aI28
aI20
aI12
aI19
aI27
aI34
aI26
aI15
aI23
aI16
aI4
aI31
aI13
aI21
aI23
aI21
aI15
aI16
aI18
aI21
aI30
aI37
aI17
aI21
aI14
aI10
aI15
aI21
aI23
aI24
aI33
aI10
aI16
aI21
aI17
aI20
aI25
aI48
aI18
aI33
aI28
aI15
aI16
aI14
aI11
aI20
aI14
aI18
aI13
aI12
aI25
aI18
aI10
aI23
aI19
aI23
aI14
aI22
aI28
aI8
aI19
aI34
aI16
aI20
aI25
aI14
aI20
aI15
aI16
aI31
aI26
aI11
aI18
aI25
aI33
aI21
aI55
aI18
atp7
Rp8
ag1
(g2
(lp9
I29
aI37
aI14
aI24
aI17
aI22
aI34
aI20
aI11
aI7
aI13
aI37
aI26
aI28
aI19
aI30
aI12
aI32
aI31
aI18
aI24
aI19
aI26
aI23
aI14
aI10
aI11
aI25
aI26
aI28
aI17
aI12
aI19
aI13
aI7
aI13
aI22
aI17
aI14
aI12
aI21
aI37
aI10
aI44
aI17
aI16
aI34
aI25
aI21
aI13
aI28
aI27
aI21
aI18
aI28
aI16
aI28
aI18
aI41
aI20
aI21
aI19
aI13
aI21
aI20
aI17
aI12
aI25
aI17
aI21
aI26
aI38
aI29
aI16
aI12
aI19
aI11
aI20
aI16
aI30
aI38
aI23
aI16
aI15
aI31
aI10
aI12
aI22
aI9
aI26
aI23
aI13
aI24
aI22
aI24
aI15
aI12
aI13
aI24
aI23
atp10
Rp11
ag1
(g2
(lp12
I18
aI24
aI31
aI12
aI13
aI23
aI20
aI23
aI12
aI24
aI41
aI17
aI18
aI23
aI21
aI13
aI9
aI12
aI22
aI21
aI14
aI13
aI17
aI13
aI24
aI17
aI15
aI23
aI13
aI27
aI25
aI27
aI6
aI13
aI26
aI11
aI19
aI34
aI15
aI24
aI11
aI17
aI18
aI20
aI25
aI14
aI15
aI33
aI25
aI13
aI17
aI18
aI21
aI27
aI28
aI31
aI50
aI8
aI27
aI8
aI8
aI45
aI10
aI33
aI16
aI19
aI24
aI27
aI22
aI16
aI21
aI52
aI11
aI15
aI12
aI33
aI20
aI13
aI17
aI27
aI11
aI19
aI8
aI26
aI17
aI25
aI16
aI16
aI17
aI20
aI30
aI17
aI14
aI42
aI43
aI20
aI30
aI46
aI24
aI13
atp13
Rp14
ag1
(g2
(lp15
I27
aI10
aI12
aI19
aI18
aI16
aI23
aI20
aI15
aI18
aI11
aI13
aI18
aI14
aI48
aI18
aI31
aI17
aI22
aI43
aI23
aI25
aI20
aI31
aI33
aI28
aI25
aI17
aI18
aI26
aI11
aI12
aI12
aI22
aI26
aI15
aI12
aI18
aI8
aI29
aI19
aI19
aI19
aI27
aI18
aI16
aI10
aI30
aI15
aI24
aI18
aI41
aI14
aI5
aI31
aI20
aI16
aI19
aI29
aI22
aI18
aI25
aI15
aI18
aI20
aI20
aI28
aI20
aI13
aI28
aI31
aI21
aI23
aI15
aI28
aI39
aI25
aI41
aI13
aI17
aI5
aI22
aI12
aI23
aI17
aI22
aI11
aI23
aI16
aI12
aI25
aI19
aI15
aI16
aI40
aI20
aI34
aI21
aI23
aI24
atp16
Rp17
ag1
(g2
(lp18
I14
aI19
aI29
aI15
aI31
aI14
aI11
aI11
aI28
aI18
aI40
aI16
aI16
aI30
aI11
aI16
aI18
aI9
aI50
aI20
aI11
aI25
aI42
aI21
aI14
aI19
aI17
aI24
aI21
aI12
aI15
aI13
aI31
aI36
aI22
aI21
aI27
aI13
aI11
aI20
aI16
aI37
aI29
aI18
aI30
aI22
aI32
aI19
aI15
aI16
aI52
aI22
aI31
aI20
aI18
aI19
aI16
aI19
aI25
aI29
aI21
aI16
aI23
aI26
aI13
aI12
aI41
aI22
aI8
aI29
aI13
aI13
aI10
aI22
aI20
aI17
aI31
aI11
aI6
aI13
aI19
aI15
aI17
aI18
aI16
aI28
aI19
aI21
aI8
aI33
aI30
aI21
aI19
aI12
aI21
aI30
aI12
aI19
aI26
aI27
atp19
Rp20
ag1
(g2
(lp21
I16
aI23
aI20
aI20
aI31
aI10
aI15
aI15
aI24
aI19
aI17
aI19
aI33
aI33
aI22
aI20
aI55
aI15
aI21
aI22
aI14
aI11
aI35
aI24
aI26
aI23
aI18
aI31
aI17
aI28
aI19
aI17
aI15
aI17
aI29
aI19
aI10
aI19
aI18
aI39
aI27
aI8
aI26
aI13
aI23
aI15
aI21
aI20
aI16
aI14
aI57
aI34
aI43
aI12
aI8
aI16
aI26
aI11
aI13
aI10
aI16
aI9
aI18
aI25
aI27
aI12
aI24
aI37
aI12
aI24
aI23
aI28
aI19
aI18
aI25
aI15
aI9
aI41
aI26
aI23
aI22
aI34
aI12
aI14
aI28
aI14
aI16
aI11
aI14
aI35
aI11
aI21
aI22
aI27
aI16
aI11
aI11
aI15
aI19
aI18
atp22
Rp23
ag1
(g2
(lp24
I24
aI28
aI21
aI24
aI18
aI26
aI20
aI10
aI12
aI12
aI17
aI30
aI20
aI20
aI13
aI23
aI24
aI26
aI21
aI16
aI33
aI21
aI13
aI25
aI14
aI25
aI24
aI24
aI17
aI36
aI17
aI23
aI15
aI16
aI9
aI12
aI19
aI27
aI16
aI20
aI19
aI27
aI26
aI17
aI35
aI11
aI31
aI9
aI24
aI14
aI17
aI12
aI13
aI28
aI19
aI10
aI22
aI26
aI31
aI7
aI25
aI22
aI20
aI15
aI19
aI17
aI21
aI14
aI28
aI35
aI18
aI32
aI15
aI26
aI14
aI22
aI24
aI24
aI24
aI29
aI27
aI15
aI30
aI47
aI33
aI12
aI21
aI26
aI16
aI35
aI22
aI12
aI15
aI13
aI30
aI24
aI13
aI12
aI19
aI19
atp25
Rp26
ag1
(g2
(lp27
I35
aI18
aI28
aI25
aI19
aI17
aI16
aI19
aI43
aI17
aI38
aI21
aI14
aI14
aI23
aI11
aI31
aI16
aI16
aI15
aI24
aI26
aI5
aI11
aI17
aI14
aI32
aI14
aI30
aI12
aI25
aI24
aI9
aI47
aI13
aI32
aI11
aI13
aI20
aI24
aI15
aI20
aI18
aI13
aI11
aI20
aI20
aI28
aI35
aI20
aI34
aI33
aI11
aI26
aI37
aI11
aI24
aI13
aI30
aI37
aI18
aI11
aI9
aI10
aI12
aI36
aI12
aI35
aI29
aI16
aI31
aI24
aI16
aI15
aI8
aI17
aI12
aI35
aI33
aI31
aI21
aI21
aI25
aI17
aI8
aI22
aI18
aI3
aI21
aI24
aI17
aI11
aI19
aI15
aI22
aI20
aI48
aI8
aI23
aI26
atp28
Rp29
ag1
(g2
(lp30
I13
aI10
aI16
aI9
aI35
aI35
aI28
aI10
aI21
aI12
aI12
aI13
aI21
aI18
aI12
aI10
aI26
aI20
aI40
aI21
aI37
aI31
aI37
aI19
aI23
aI24
aI13
aI10
aI23
aI8
aI15
aI22
aI8
aI24
aI32
aI16
aI15
aI26
aI37
aI14
aI17
aI20
aI40
aI20
aI11
aI16
aI16
aI10
aI31
aI17
aI27
aI22
aI21
aI17
aI22
aI31
aI10
aI16
aI13
aI12
aI20
aI16
aI29
aI29
aI15
aI20
aI17
aI21
aI18
aI19
aI30
aI24
aI15
aI15
aI16
aI21
aI23
aI33
aI26
aI16
aI25
aI20
aI18
aI16
aI11
aI14
aI66
aI18
aI18
aI12
aI14
aI45
aI14
aI36
aI13
aI37
aI20
aI29
aI20
aI20
atp31
Rp32
a.