(lp0
carray
array
p1
(S'l'
p2
(lp3
I4
aI27
aI23
aI13
aI22
aI26
aI23
aI20
aI20
aI18
aI11
aI11
aI29
aI32
aI18
aI15
aI14
aI11
aI37
aI11
aI8
aI9
aI21
aI29
aI18
aI27
aI18
aI11
aI22
aI19
aI9
aI13
aI9
aI13
aI17
aI20
aI32
aI38
aI14
aI26
aI16
aI4
aI45
aI10
aI17
aI23
aI13
aI7
aI20
aI15
aI13
aI14
aI12
aI12
aI18
aI24
aI19
aI50
aI21
aI19
aI22
aI29
aI32
aI14
aI25
aI13
aI18
aI18
aI16
aI27
aI12
aI11
aI20
aI23
aI20
aI7
aI8
aI21
aI11
aI17
aI14
aI23
aI12
aI26
aI21
aI22
aI14
aI20
aI13
aI21
aI10
aI26
aI34
aI7
aI17
aI23
aI20
aI19
aI23
aI11
atp4
Rp5
ag1
(g2
(lp6
I15
aI52
aI18
aI30
aI15
aI20
aI24
aI19
aI33
aI22
aI27
aI22
aI32
aI15
aI21
aI13
aI24
aI43
aI12
aI17
aI33
aI16
aI21
aI12
aI16
aI20
aI18
aI11
aI27
aI4
aI25
aI23
aI13
aI22
aI10
aI25
aI35
aI27
aI14
aI14
aI10
aI11
aI24
aI14
aI12
aI8
aI19
aI11
aI12
aI17
aI18
aI15
aI28
aI11
aI7
aI23
aI21
aI24
aI13
aI22
aI14
aI8
aI11
aI11
aI11
aI12
aI18
aI24
aI21
aI13
aI10
aI9
aI19
aI19
aI15
aI19
aI13
aI27
aI6
aI26
aI25
aI8
aI24
aI17
aI24
aI11
aI31
aI23
aI22
aI9
aI17
aI26
aI25
aI13
aI18
aI16
aI15
aI25
aI25
aI10
atp7
Rp8
ag1
(g2
(lp9
I17
aI20
aI21
aI17
aI13
aI15
aI36
aI21
aI18
aI14
aI15
aI34
aI36
aI15
aI17
aI30
aI20
aI27
aI19
aI20
aI10
aI23
aI18
aI20
aI16
aI12
aI20
aI17
aI9
aI16
aI14
aI14
aI13
aI13
aI21
aI23
aI23
aI19
aI13
aI24
aI15
aI25
aI8
aI39
aI10
aI21
aI25
aI12
aI16
aI23
aI16
aI11
aI16
aI11
aI22
aI12
aI19
aI24
aI32
aI17
aI21
aI16
aI34
aI10
aI7
aI15
aI13
aI26
aI18
aI22
aI16
aI24
aI12
aI11
aI17
aI20
aI26
aI18
aI15
aI11
aI41
aI13
aI13
aI17
aI39
aI9
aI24
aI8
aI13
aI21
aI7
aI11
aI25
aI23
aI17
aI37
aI24
aI12
aI17
aI10
atp10
Rp11
ag1
(g2
(lp12
I13
aI16
aI21
aI16
aI18
aI16
aI24
aI11
aI15
aI16
aI52
aI14
aI12
aI23
aI16
aI18
aI18
aI20
aI18
aI16
aI16
aI18
aI15
aI21
aI8
aI8
aI15
aI21
aI16
aI13
aI19
aI18
aI12
aI6
aI50
aI10
aI19
aI15
aI20
aI16
aI22
aI18
aI21
aI10
aI32
aI18
aI17
aI11
aI8
aI12
aI25
aI6
aI14
aI33
aI29
aI24
aI16
aI14
aI12
aI10
aI8
aI36
aI16
aI19
aI26
aI24
aI26
aI28
aI14
aI45
aI22
aI12
aI14
aI15
aI13
aI32
aI14
aI14
aI19
aI23
aI9
aI13
aI17
aI11
aI15
aI38
aI10
aI20
aI25
aI23
aI19
aI13
aI21
aI26
aI35
aI11
aI26
aI23
aI19
aI15
atp13
Rp14
ag1
(g2
(lp15
I27
aI12
aI29
aI12
aI25
aI21
aI11
aI15
aI15
aI19
aI4
aI12
aI15
aI22
aI20
aI13
aI22
aI25
aI25
aI10
aI13
aI21
aI22
aI21
aI32
aI14
aI13
aI36
aI10
aI33
aI17
aI15
aI9
aI17
aI23
aI12
aI15
aI23
aI13
aI28
aI15
aI12
aI20
aI13
aI18
aI23
aI17
aI17
aI7
aI27
aI25
aI19
aI15
aI11
aI10
aI21
aI42
aI13
aI22
aI21
aI23
aI22
aI14
aI9
aI25
aI13
aI15
aI17
aI28
aI15
aI16
aI15
aI26
aI26
aI14
aI22
aI21
aI37
aI36
aI27
aI18
aI15
aI25
aI20
aI20
aI20
aI15
aI13
aI15
aI15
aI18
aI17
aI17
aI10
aI15
aI17
aI20
aI15
aI22
aI13
atp16
Rp17
ag1
(g2
(lp18
I16
aI12
aI28
aI13
aI25
aI21
aI21
aI12
aI26
aI19
aI12
aI16
aI14
aI24
aI17
aI13
aI20
aI22
aI22
aI15
aI25
aI40
aI21
aI34
aI12
aI14
aI13
aI12
aI19
aI8
aI17
aI17
aI35
aI20
aI16
aI26
aI14
aI9
aI7
aI9
aI11
aI25
aI11
aI19
aI17
aI18
aI43
aI23
aI26
aI19
aI32
aI22
aI14
aI3
aI18
aI6
aI42
aI23
aI23
aI30
aI29
aI15
aI21
aI21
aI13
aI9
aI34
aI17
aI7
aI24
aI6
aI12
aI15
aI25
aI22
aI7
aI15
aI17
aI16
aI11
aI27
aI12
aI10
aI11
aI24
aI17
aI17
aI18
aI25
aI22
aI24
aI21
aI18
aI13
aI26
aI23
aI23
aI14
aI17
aI11
atp19
Rp20
ag1
(g2
(lp21
I17
aI24
aI20
aI12
aI12
aI9
aI23
aI14
aI12
aI18
aI31
aI8
aI26
aI25
aI15
aI16
aI41
aI11
aI29
aI13
aI15
aI14
aI31
aI16
aI20
aI10
aI30
aI22
aI12
aI14
aI26
aI9
aI14
aI14
aI38
aI37
aI22
aI26
aI15
aI33
aI13
aI19
aI23
aI23
aI9
aI15
aI16
aI25
aI7
aI11
aI28
aI29
aI26
aI18
aI16
aI11
aI41
aI20
aI14
aI8
aI12
aI13
aI12
aI20
aI10
aI18
aI27
aI18
aI9
aI11
aI13
aI12
aI17
aI9
aI24
aI9
aI16
aI37
aI18
aI24
aI8
aI29
aI12
aI9
aI18
aI18
aI19
aI13
aI25
aI23
aI34
aI11
aI16
aI28
aI24
aI15
aI14
aI26
aI15
aI18
atp22
Rp23
ag1
(g2
(lp24
I10
aI14
aI18
aI13
aI28
aI10
aI13
aI5
aI17
aI10
aI10
aI22
aI23
aI11
aI21
aI21
aI32
aI23
aI29
aI19
aI33
aI29
aI6
aI21
aI14
aI8
aI13
aI18
aI19
aI17
aI20
aI11
aI37
aI16
aI10
aI28
aI15
aI16
aI14
aI16
aI18
aI14
aI31
aI16
aI21
aI7
aI11
aI10
aI22
aI13
aI16
aI23
aI8
aI22
aI23
aI6
aI22
aI38
aI25
aI17
aI13
aI32
aI14
aI17
aI16
aI16
aI23
aI9
aI13
aI21
aI14
aI19
aI16
aI32
aI24
aI28
aI19
aI28
aI19
aI19
aI14
aI16
aI19
aI20
aI16
aI29
aI17
aI23
aI23
aI25
aI17
aI8
aI15
aI20
aI35
aI19
aI32
aI16
aI23
aI18
atp25
Rp26
ag1
(g2
(lp27
I19
aI10
aI18
aI20
aI19
aI18
aI12
aI18
aI24
aI17
aI55
aI19
aI9
aI7
aI19
aI12
aI19
aI17
aI12
aI37
aI40
aI26
aI17
aI11
aI21
aI8
aI28
aI7
aI18
aI14
aI17
aI11
aI14
aI22
aI10
aI20
aI11
aI22
aI14
aI27
aI10
aI17
aI23
aI28
aI17
aI13
aI10
aI25
aI28
aI18
aI32
aI30
aI9
aI49
aI27
aI13
aI28
aI23
aI32
aI21
aI12
aI22
aI21
aI10
aI14
aI24
aI18
aI33
aI10
aI21
aI15
aI20
aI21
aI20
aI15
aI12
aI16
aI18
aI11
aI14
aI22
aI21
aI11
aI11
aI20
aI9
aI12
aI14
aI21
aI21
aI22
aI19
aI11
aI19
aI7
aI16
aI18
aI19
aI28
aI10
atp28
Rp29
ag1
(g2
(lp30
I13
aI21
aI10
aI10
aI25
aI24
aI25
aI9
aI20
aI14
aI22
aI18
aI18
aI19
aI15
aI29
aI18
aI15
aI14
aI19
aI31
aI22
aI32
aI17
aI14
aI13
aI15
aI14
aI19
aI18
aI20
aI18
aI11
aI30
aI18
aI16
aI10
aI20
aI20
aI24
aI15
aI22
aI15
aI14
aI17
aI8
aI14
aI12
aI9
aI13
aI20
aI14
aI18
aI10
aI17
aI22
aI8
aI16
aI19
aI24
aI12
aI20
aI19
aI21
aI15
aI17
aI37
aI20
aI27
aI12
aI14
aI16
aI14
aI34
aI14
aI24
aI16
aI17
aI15
aI26
aI9
aI19
aI17
aI16
aI17
aI18
aI30
aI17
aI20
aI19
aI11
aI27
aI38
aI44
aI11
aI35
aI21
aI11
aI25
aI28
atp31
Rp32
a.