(lp0
carray
array
p1
(S'l'
p2
(lp3
I27
aI43
aI29
aI19
aI32
aI50
aI32
aI29
aI27
aI30
aI19
aI23
aI64
aI28
aI20
aI30
aI22
aI25
aI34
aI46
aI20
aI30
aI29
aI45
aI21
aI33
aI26
aI20
aI37
aI18
aI18
aI31
aI22
aI29
aI27
aI28
aI28
aI46
aI28
aI38
aI36
aI9
aI33
aI20
aI25
aI25
aI37
aI12
aI22
aI21
aI19
aI16
aI30
aI20
aI31
aI19
aI25
aI33
aI35
aI25
aI24
aI24
aI38
aI27
aI44
aI13
aI17
aI45
aI37
aI62
aI19
aI19
aI13
aI58
aI26
aI20
aI24
aI22
aI18
aI23
aI16
aI28
aI28
aI21
aI24
aI32
aI16
aI27
aI21
aI28
aI10
aI29
aI45
aI18
aI27
aI40
aI15
aI29
aI26
aI17
atp4
Rp5
ag1
(g2
(lp6
I17
aI61
aI26
aI26
aI32
aI24
aI34
aI19
aI38
aI31
aI37
aI39
aI18
aI42
aI23
aI21
aI30
aI25
aI23
aI28
aI20
aI27
aI19
aI34
aI28
aI22
aI22
aI22
aI41
aI18
aI57
aI44
aI13
aI29
aI28
aI39
aI56
aI36
aI18
aI26
aI18
aI39
aI41
aI21
aI22
aI14
aI24
aI28
aI18
aI19
aI20
aI26
aI53
aI23
aI18
aI29
aI28
aI14
aI29
aI30
aI32
aI17
aI33
aI27
aI17
aI24
aI28
aI31
aI16
aI20
aI18
aI16
aI28
aI18
aI22
aI32
aI26
aI26
aI19
aI32
aI38
aI19
aI32
aI25
aI25
aI26
aI41
aI26
aI24
aI33
aI23
aI35
aI35
aI21
aI32
aI32
aI29
aI27
aI37
aI17
atp7
Rp8
ag1
(g2
(lp9
I21
aI23
aI24
aI36
aI31
aI32
aI71
aI31
aI37
aI11
aI25
aI46
aI44
aI21
aI11
aI52
aI40
aI24
aI22
aI14
aI24
aI18
aI33
aI35
aI26
aI35
aI16
aI27
aI33
aI23
aI10
aI25
aI19
aI25
aI39
aI24
aI32
aI24
aI15
aI23
aI38
aI28
aI27
aI60
aI20
aI17
aI41
aI28
aI27
aI30
aI22
aI19
aI26
aI17
aI37
aI26
aI32
aI43
aI42
aI36
aI33
aI22
aI28
aI15
aI25
aI17
aI18
aI32
aI16
aI32
aI18
aI18
aI16
aI16
aI28
aI44
aI18
aI21
aI31
aI27
aI55
aI26
aI25
aI25
aI26
aI22
aI21
aI18
aI26
aI35
aI21
aI24
aI28
aI29
aI26
aI21
aI21
aI36
aI39
aI29
atp10
Rp11
ag1
(g2
(lp12
I16
aI19
aI46
aI19
aI20
aI26
aI39
aI16
aI31
aI16
aI51
aI31
aI20
aI39
aI16
aI18
aI17
aI14
aI50
aI27
aI28
aI23
aI41
aI25
aI20
aI18
aI36
aI53
aI11
aI31
aI29
aI29
aI22
aI18
aI57
aI20
aI41
aI26
aI32
aI27
aI33
aI33
aI22
aI38
aI33
aI25
aI26
aI28
aI16
aI21
aI37
aI21
aI23
aI39
aI23
aI29
aI57
aI30
aI13
aI21
aI22
aI60
aI23
aI26
aI18
aI40
aI40
aI40
aI18
aI34
aI35
aI23
aI28
aI16
aI18
aI25
aI29
aI15
aI18
aI24
aI27
aI25
aI19
aI32
aI11
aI32
aI16
aI17
aI31
aI39
aI24
aI19
aI24
aI25
aI30
aI33
aI40
aI32
aI25
aI27
atp13
Rp14
ag1
(g2
(lp15
I44
aI20
aI19
aI28
aI13
aI30
aI21
aI25
aI13
aI32
aI24
aI18
aI18
aI18
aI41
aI12
aI31
aI20
aI31
aI43
aI30
aI28
aI22
aI38
aI48
aI16
aI31
aI34
aI23
aI53
aI35
aI23
aI12
aI27
aI34
aI24
aI30
aI33
aI16
aI33
aI18
aI20
aI36
aI25
aI28
aI25
aI33
aI44
aI18
aI42
aI42
aI31
aI37
aI20
aI15
aI31
aI60
aI36
aI37
aI20
aI25
aI37
aI28
aI23
aI22
aI18
aI23
aI25
aI24
aI24
aI34
aI24
aI26
aI25
aI18
aI46
aI36
aI56
aI31
aI28
aI11
aI25
aI22
aI32
aI20
aI16
aI19
aI30
aI13
aI24
aI19
aI27
aI19
aI35
aI36
aI29
aI24
aI15
aI47
aI21
atp16
Rp17
ag1
(g2
(lp18
I29
aI27
aI32
aI18
aI25
aI19
aI35
aI19
aI32
aI38
aI17
aI47
aI24
aI22
aI17
aI29
aI41
aI26
aI42
aI29
aI20
aI40
aI43
aI33
aI23
aI46
aI17
aI30
aI16
aI16
aI22
aI24
aI43
aI25
aI33
aI35
aI47
aI27
aI20
aI17
aI19
aI44
aI32
aI17
aI34
aI24
aI35
aI27
aI17
aI24
aI47
aI11
aI31
aI23
aI27
aI18
aI45
aI35
aI20
aI40
aI16
aI25
aI28
aI36
aI27
aI26
aI51
aI17
aI16
aI24
aI24
aI23
aI21
aI38
aI17
aI8
aI29
aI17
aI23
aI21
aI36
aI22
aI29
aI31
aI23
aI31
aI33
aI43
aI19
aI26
aI50
aI27
aI21
aI23
aI30
aI30
aI21
aI17
aI28
aI24
atp19
Rp20
ag1
(g2
(lp21
I36
aI29
aI23
aI42
aI24
aI15
aI21
aI17
aI18
aI32
aI53
aI14
aI38
aI25
aI32
aI19
aI56
aI22
aI29
aI24
aI34
aI24
aI25
aI23
aI33
aI22
aI39
aI54
aI32
aI18
aI27
aI27
aI28
aI34
aI18
aI28
aI37
aI33
aI18
aI32
aI17
aI28
aI38
aI25
aI21
aI23
aI29
aI24
aI13
aI19
aI45
aI28
aI62
aI24
aI16
aI29
aI60
aI15
aI20
aI25
aI27
aI20
aI28
aI50
aI18
aI19
aI19
aI21
aI19
aI19
aI27
aI19
aI24
aI25
aI19
aI12
aI23
aI48
aI27
aI38
aI40
aI47
aI22
aI19
aI29
aI11
aI42
aI25
aI32
aI31
aI23
aI22
aI20
aI25
aI24
aI31
aI15
aI32
aI28
aI30
atp22
Rp23
ag1
(g2
(lp24
I37
aI29
aI24
aI24
aI31
aI21
aI25
aI19
aI25
aI28
aI17
aI34
aI28
aI12
aI25
aI33
aI32
aI26
aI47
aI28
aI38
aI30
aI15
aI33
aI30
aI23
aI19
aI21
aI22
aI32
aI35
aI20
aI30
aI24
aI18
aI26
aI20
aI35
aI31
aI33
aI29
aI20
aI39
aI23
aI26
aI19
aI26
aI18
aI31
aI23
aI32
aI19
aI21
aI40
aI53
aI26
aI11
aI30
aI49
aI17
aI22
aI39
aI26
aI21
aI30
aI19
aI27
aI21
aI32
aI32
aI22
aI30
aI20
aI30
aI32
aI53
aI25
aI26
aI39
aI23
aI27
aI28
aI27
aI20
aI39
aI23
aI28
aI27
aI28
aI46
aI24
aI21
aI35
aI26
aI48
aI14
aI27
aI24
aI27
aI26
atp25
Rp26
ag1
(g2
(lp27
I32
aI19
aI29
aI33
aI29
aI24
aI20
aI21
aI22
aI22
aI49
aI28
aI28
aI30
aI24
aI23
aI32
aI20
aI17
aI19
aI56
aI23
aI21
aI23
aI17
aI11
aI42
aI26
aI36
aI16
aI22
aI18
aI14
aI48
aI22
aI21
aI31
aI36
aI27
aI33
aI25
aI33
aI45
aI19
aI15
aI23
aI18
aI38
aI52
aI28
aI37
aI43
aI26
aI42
aI29
aI13
aI22
aI25
aI31
aI34
aI16
aI23
aI27
aI7
aI12
aI50
aI28
aI51
aI31
aI23
aI28
aI25
aI22
aI22
aI16
aI29
aI30
aI37
aI24
aI33
aI30
aI41
aI25
aI20
aI22
aI24
aI28
aI17
aI35
aI37
aI25
aI25
aI34
aI25
aI27
aI30
aI47
aI31
aI22
aI25
atp28
Rp29
ag1
(g2
(lp30
I25
aI28
aI15
aI27
aI22
aI36
aI42
aI23
aI37
aI33
aI32
aI17
aI28
aI24
aI16
aI20
aI26
aI34
aI22
aI14
aI45
aI47
aI39
aI23
aI29
aI26
aI18
aI14
aI26
aI23
aI20
aI30
aI19
aI38
aI23
aI37
aI10
aI26
aI22
aI16
aI34
aI47
aI24
aI36
aI24
aI6
aI26
aI19
aI30
aI34
aI33
aI22
aI29
aI27
aI29
aI35
aI9
aI22
aI44
aI13
aI33
aI33
aI31
aI57
aI29
aI22
aI47
aI19
aI33
aI19
aI22
aI11
aI42
aI25
aI26
aI25
aI25
aI38
aI46
aI28
aI26
aI29
aI32
aI19
aI22
aI16
aI47
aI27
aI15
aI9
aI25
aI37
aI50
aI58
aI11
aI39
aI23
aI16
aI17
aI42
atp31
Rp32
a.